target datalayout = "e-m:e-p270:32:32-p271:32:32-p272:64:64-i64:64-i128:128-f80:128-n8:16:32:64-S128"
target triple = "x86_64-pc-linux-gnu"

%struct.stat = type { i64, i64, i64, i32, i32, i32, i32, i64, i64, i64, i64, %struct.timespec, %struct.timespec, %struct.timespec, [3 x i64] }
%struct.timespec = type { i64, i64 }

@slurmd_config_files = internal global [13 x ptr] [ptr @.str.30, ptr @.str.43, ptr @.str.44, ptr @.str.38, ptr @.str.45, ptr @.str.46, ptr @.str.47, ptr @.str.48, ptr @.str.41, ptr @.str.39, ptr @.str.42, ptr @.str.40, ptr null], align 16
@conf_includes_list = external global ptr, align 8

; Function Attrs: nounwind uwtable
define dso_local void @grab_include_directives() #0 {
  %1 = alloca ptr, align 8
  %2 = alloca %struct.stat, align 8
  %3 = alloca i32, align 4
  %4 = alloca i32, align 4
  call void @llvm.lifetime.start.p0(i64 8, ptr %1) #9
  store ptr null, ptr %1, align 8
  call void @llvm.lifetime.start.p0(i64 144, ptr %2) #9
  call void @llvm.lifetime.start.p0(i64 4, ptr %3) #9
  store i32 0, ptr %3, align 4
  %5 = load i32, ptr %3, align 4
  %6 = zext i32 %5 to i64
  %7 = or i64 %6, 4
  %8 = trunc i64 %7 to i32
  store i32 %8, ptr %3, align 4
  call void @llvm.lifetime.start.p0(i64 4, ptr %4) #9
  store i32 0, ptr %4, align 4
  br label %9

9:                                                ; preds = %42, %0
  %10 = load i32, ptr %4, align 4
  %11 = sext i32 %10 to i64
  %12 = getelementptr inbounds [13 x ptr], ptr @slurmd_config_files, i64 0, i64 %11
  %13 = load ptr, ptr %12, align 8
  %14 = icmp ne ptr %13, null
  br i1 %14, label %16, label %15

15:                                               ; preds = %9
  call void @llvm.lifetime.end.p0(i64 4, ptr %4) #9
  br label %45

16:                                               ; preds = %9
  %17 = load ptr, ptr @conf_includes_list, align 8
  %18 = icmp ne ptr %17, null
  br i1 %18, label %19, label %27

19:                                               ; preds = %16
  %20 = load ptr, ptr @conf_includes_list, align 8
  %21 = load i32, ptr %4, align 4
  %22 = sext i32 %21 to i64
  %23 = getelementptr inbounds [13 x ptr], ptr @slurmd_config_files, i64 0, i64 %22
  %24 = load ptr, ptr %23, align 8
  %25 = call ptr @list_find_first_ro(ptr noundef %20, ptr noundef @find_map_conf_file, ptr noundef %24)
  %26 = icmp ne ptr %25, null
  br i1 %26, label %41, label %27

27:                                               ; preds = %19, %16
  %28 = load i32, ptr %4, align 4
  %29 = sext i32 %28 to i64
  %30 = getelementptr inbounds [13 x ptr], ptr @slurmd_config_files, i64 0, i64 %29
  %31 = load ptr, ptr %30, align 8
  %32 = call ptr @get_extra_conf_path(ptr noundef %31)
  store ptr %32, ptr %1, align 8
  %33 = load ptr, ptr %1, align 8
  %34 = call i32 @stat(ptr noundef %33, ptr noundef %2) #9
  %35 = icmp ne i32 %34, 0
  br i1 %35, label %40, label %36

36:                                               ; preds = %27
  %37 = load ptr, ptr %1, align 8
  %38 = load i32, ptr %3, align 4
  %39 = call i32 @s_p_parse_file(ptr noundef null, ptr noundef null, ptr noundef %37, i32 noundef %38, ptr noundef null)
  br label %40

40:                                               ; preds = %36, %27
  br label %41

41:                                               ; preds = %40, %19
  call void @slurm_xfree(ptr noundef %1)
  br label %42

42:                                               ; preds = %41
  %43 = load i32, ptr %4, align 4
  %44 = add nsw i32 %43, 1
  store i32 %44, ptr %4, align 4
  br label %9, !llvm.loop !23

45:                                               ; preds = %15
  call void @llvm.lifetime.end.p0(i64 4, ptr %3) #9
  call void @llvm.lifetime.end.p0(i64 144, ptr %2) #9
  call void @llvm.lifetime.end.p0(i64 8, ptr %1) #9
  ret void
}