; Function Attrs: nounwind uwtable
define dso_local void @grab_include_directives() local_unnamed_addr #0 {
  %1 = alloca ptr, align 8
  %2 = alloca %struct.stat, align 8
  call void @llvm.lifetime.start.p0(i64 8, ptr nonnull %1) #12
  store ptr null, ptr %1, align 8
  call void @llvm.lifetime.start.p0(i64 144, ptr nonnull %2) #12
  br label %4

3:                                                ; preds = %15
  call void @llvm.lifetime.end.p0(i64 144, ptr nonnull %2) #12
  call void @llvm.lifetime.end.p0(i64 8, ptr nonnull %1) #12
  ret void

4:                                                ; preds = %0, %15
  %indvars.iv = phi i64 [ 0, %0 ], [ %indvars.iv.next, %15 ]
  %5 = phi ptr [ @.str.30, %0 ], [ %17, %15 ]
  %6 = load ptr, ptr @conf_includes_list, align 8
  %.not8 = icmp eq ptr %6, null
  br i1 %.not8, label %9, label %7

7:                                                ; preds = %4
  %8 = call ptr @list_find_first_ro(ptr noundef nonnull %6, ptr noundef nonnull @find_map_conf_file, ptr noundef %5) #12
  %.not9 = icmp eq ptr %8, null
  br i1 %.not9, label %9, label %15

9:                                                ; preds = %7, %4
  %10 = call ptr @get_extra_conf_path(ptr noundef %5) #12
  store ptr %10, ptr %1, align 8
  %11 = call i32 @stat(ptr noundef %10, ptr noundef nonnull %2) #12
  %.not10 = icmp eq i32 %11, 0
  br i1 %.not10, label %12, label %15

12:                                               ; preds = %9
  %13 = load ptr, ptr %1, align 8
  %14 = call i32 @s_p_parse_file(ptr noundef null, ptr noundef null, ptr noundef %13, i32 noundef 4, ptr noundef null) #12
  br label %15

15:                                               ; preds = %9, %12, %7
  call void @slurm_xfree(ptr noundef nonnull %1) #12
  %indvars.iv.next = add nuw nsw i64 %indvars.iv, 1
  %16 = getelementptr inbounds nuw [13 x ptr], ptr @slurmd_config_files, i64 0, i64 %indvars.iv.next
  %17 = load ptr, ptr %16, align 8
  %.not = icmp eq i64 %indvars.iv.next, 12
  br i1 %.not, label %3, label %4, !llvm.loop !23
}